target datalayout = "e-m:e-p270:32:32-p271:32:32-p272:64:64-i64:64-i128:128-f80:128-n8:16:32:64-S128"
target triple = "x86_64-pc-linux-gnu"

%class.QWriteLocker = type { i64 }
%class.MLThreadSafeMemoryInfo = type { %"class.vcg::NotThreadSafeMemoryInfo", %class.QReadWriteLock }
%"class.vcg::NotThreadSafeMemoryInfo" = type { %"class.vcg::MemoryInfo" }
%"class.vcg::MemoryInfo" = type { ptr, i64, i64 }
%class.QReadWriteLock = type { %class.QAtomicPointer }
%class.QAtomicPointer = type { %class.QBasicAtomicPointer }
%class.QBasicAtomicPointer = type { %"struct.std::atomic" }
%"struct.std::atomic" = type { %"struct.std::__atomic_base" }
%"struct.std::__atomic_base" = type { ptr }

; Function Attrs: mustprogress nounwind uwtable
define linkonce_odr noundef ptr @_ZNK12QWriteLocker13readWriteLockEv(ptr noundef nonnull align 8 dereferenceable(8) %0) #0 comdat align 2 {
  %2 = alloca ptr, align 8
  store ptr %0, ptr %2, align 8
  %3 = load ptr, ptr %2, align 8
  %4 = getelementptr inbounds %class.QWriteLocker, ptr %3, i32 0, i32 0
  %5 = load i64, ptr %4, align 8
  %6 = and i64 %5, -2
  %7 = inttoptr i64 %6 to ptr
  ret ptr %7
}

; Function Attrs: mustprogress uwtable
define linkonce_odr void @_ZN12QWriteLocker6unlockEv(ptr noundef nonnull align 8 dereferenceable(8) %0) #1 comdat align 2 {
  %2 = alloca ptr, align 8
  store ptr %0, ptr %2, align 8
  %3 = load ptr, ptr %2, align 8
  %4 = getelementptr inbounds %class.QWriteLocker, ptr %3, i32 0, i32 0
  %5 = load i64, ptr %4, align 8
  %6 = icmp ne i64 %5, 0
  br i1 %6, label %7, label %18

7:                                                ; preds = %1
  %8 = getelementptr inbounds %class.QWriteLocker, ptr %3, i32 0, i32 0
  %9 = load i64, ptr %8, align 8
  %10 = and i64 %9, 1
  %11 = icmp eq i64 %10, 1
  br i1 %11, label %12, label %17

12:                                               ; preds = %7
  %13 = getelementptr inbounds %class.QWriteLocker, ptr %3, i32 0, i32 0
  %14 = load i64, ptr %13, align 8
  %15 = and i64 %14, -2
  store i64 %15, ptr %13, align 8
  %16 = call noundef ptr @_ZNK12QWriteLocker13readWriteLockEv(ptr noundef nonnull align 8 dereferenceable(8) %3)
  call void @_ZN14QReadWriteLock6unlockEv(ptr noundef nonnull align 8 dereferenceable(8) %16)
  br label %17

17:                                               ; preds = %12, %7
  br label %18

18:                                               ; preds = %17, %1
  ret void
}

; Function Attrs: mustprogress uwtable
define linkonce_odr void @_ZN12QWriteLocker6relockEv(ptr noundef nonnull align 8 dereferenceable(8) %0) #1 comdat align 2 {
  %2 = alloca ptr, align 8
  store ptr %0, ptr %2, align 8
  %3 = load ptr, ptr %2, align 8
  %4 = getelementptr inbounds %class.QWriteLocker, ptr %3, i32 0, i32 0
  %5 = load i64, ptr %4, align 8
  %6 = icmp ne i64 %5, 0
  br i1 %6, label %7, label %18

7:                                                ; preds = %1
  %8 = getelementptr inbounds %class.QWriteLocker, ptr %3, i32 0, i32 0
  %9 = load i64, ptr %8, align 8
  %10 = and i64 %9, 1
  %11 = icmp eq i64 %10, 0
  br i1 %11, label %12, label %17

12:                                               ; preds = %7
  %13 = call noundef ptr @_ZNK12QWriteLocker13readWriteLockEv(ptr noundef nonnull align 8 dereferenceable(8) %3)
  call void @_ZN14QReadWriteLock12lockForWriteEv(ptr noundef nonnull align 8 dereferenceable(8) %13)
  %14 = getelementptr inbounds %class.QWriteLocker, ptr %3, i32 0, i32 0
  %15 = load i64, ptr %14, align 8
  %16 = or i64 %15, 1
  store i64 %16, ptr %14, align 8
  br label %17

17:                                               ; preds = %12, %7
  br label %18

18:                                               ; preds = %17, %1
  ret void
}

; Function Attrs: mustprogress nounwind uwtable
define linkonce_odr void @_ZN12QWriteLockerD2Ev(ptr noundef nonnull align 8 dereferenceable(8) %0) unnamed_addr #0 comdat align 2 personality ptr @__gxx_personality_v0 {
  %2 = alloca ptr, align 8
  store ptr %0, ptr %2, align 8
  %3 = load ptr, ptr %2, align 8
  invoke void @_ZN12QWriteLocker6unlockEv(ptr noundef nonnull align 8 dereferenceable(8) %3)
          to label %4 unwind label %5

4:                                                ; preds = %1
  ret void

5:                                                ; preds = %1
  %6 = landingpad { ptr, i32 }
          catch ptr null
  %7 = extractvalue { ptr, i32 } %6, 0
  call void @__clang_call_terminate(ptr %7) #9
  unreachable
}

; Function Attrs: mustprogress nounwind uwtable
define linkonce_odr void @_ZN3vcg23NotThreadSafeMemoryInfo14releasedMemoryEl(ptr noundef nonnull align 8 dereferenceable(24) %0, i64 noundef %1) unnamed_addr #0 comdat align 2 {
  %3 = alloca ptr, align 8
  %4 = alloca i64, align 8
  store ptr %0, ptr %3, align 8
  store i64 %1, ptr %4, align 8
  %5 = load ptr, ptr %3, align 8
  %6 = load i64, ptr %4, align 8
  %7 = getelementptr inbounds %"class.vcg::MemoryInfo", ptr %5, i32 0, i32 2
  %8 = load i64, ptr %7, align 8
  %9 = add nsw i64 %8, %6
  store i64 %9, ptr %7, align 8
  ret void
}

; Function Attrs: mustprogress uwtable
define linkonce_odr void @_ZN12QWriteLockerC2EP14QReadWriteLock(ptr noundef nonnull align 8 dereferenceable(8) %0, ptr noundef %1) unnamed_addr #1 comdat align 2 {
  %3 = alloca ptr, align 8
  %4 = alloca ptr, align 8
  store ptr %0, ptr %3, align 8
  store ptr %1, ptr %4, align 8
  %5 = load ptr, ptr %3, align 8
  %6 = getelementptr inbounds %class.QWriteLocker, ptr %5, i32 0, i32 0
  %7 = load ptr, ptr %4, align 8
  %8 = ptrtoint ptr %7 to i64
  store i64 %8, ptr %6, align 8
  call void @_ZN12QWriteLocker6relockEv(ptr noundef nonnull align 8 dereferenceable(8) %5)
  ret void
}

; Function Attrs: mustprogress uwtable
define void @_ZN22MLThreadSafeMemoryInfo14releasedMemoryEl(ptr noundef nonnull align 8 dereferenceable(32) %0, i64 noundef %1) unnamed_addr #1 align 2 {
  %3 = alloca ptr, align 8
  %4 = alloca i64, align 8
  %5 = alloca %class.QWriteLocker, align 8
  store ptr %0, ptr %3, align 8
  store i64 %1, ptr %4, align 8
  %6 = load ptr, ptr %3, align 8
  %7 = getelementptr inbounds %class.MLThreadSafeMemoryInfo, ptr %6, i32 0, i32 1
  call void @_ZN12QWriteLockerC2EP14QReadWriteLock(ptr noundef nonnull align 8 dereferenceable(8) %5, ptr noundef %7)
  %8 = load i64, ptr %4, align 8
  call void @_ZN3vcg23NotThreadSafeMemoryInfo14releasedMemoryEl(ptr noundef nonnull align 8 dereferenceable(24) %6, i64 noundef %8)
  call void @_ZN12QWriteLockerD2Ev(ptr noundef nonnull align 8 dereferenceable(8) %5) #7
  ret void
}